; Function Attrs: mustprogress nofree norecurse nosync nounwind willreturn memory(read, inaccessiblemem: none) uwtable
define hidden noundef range(i32 0, 67108864) i32 @_ZNK4llvh6detail9IEEEFloat9partCountEv(ptr noundef nonnull readonly align 8 captures(none) dereferenceable(24) %this) local_unnamed_addr #3 align 2 {
entry:
  %0 = load ptr, ptr %this, align 8
  %precision = getelementptr inbounds nuw i8, ptr %0, i64 4
  %1 = load i32, ptr %precision, align 4
  %sub.i = add i32 %1, 64
  %div1.i = lshr i32 %sub.i, 6
  ret i32 %div1.i
}